target datalayout = "e-m:e-p270:32:32-p271:32:32-p272:64:64-i64:64-i128:128-f80:128-n8:16:32:64-S128"
target triple = "x86_64-pc-linux-gnu"

%class.LogTagSet = type { ptr, i64, [5 x i32], [4 x i8], %class.LogOutputList, %class.LogDecorators, ptr }
%class.LogOutputList = type <{ [6 x ptr], i32, [4 x i8] }>
%class.LogDecorators = type { i32 }
%class.JvmtiTagMap = type <{ ptr, %class.Monitor, ptr, i8, i8, [6 x i8] }>
%class.Monitor = type { %class.Mutex }
%class.Mutex = type { ptr, %class.PlatformMonitor, ptr }
%class.PlatformMonitor = type { %class.PlatformMutex, %union.pthread_cond_t }
%class.PlatformMutex = type { %union.pthread_mutex_t }
%union.pthread_mutex_t = type { %struct.__pthread_mutex_s }
%struct.__pthread_mutex_s = type { i32, i32, i32, i32, i32, i16, i16, %struct.__pthread_internal_list }
%struct.__pthread_internal_list = type { ptr, ptr }
%union.pthread_cond_t = type { %struct.__pthread_cond_s }
%struct.__pthread_cond_s = type { %union.__atomic_wide_counter, %union.__atomic_wide_counter, [2 x i32], [2 x i32], i32, i32, [2 x i32] }
%union.__atomic_wide_counter = type { i64 }
%class.JvmtiEnvBase = type <{ %struct._jvmtiEnv, i32, i32, ptr, i8, [7 x i8], ptr, %struct.jvmtiEventCallbacks, %struct.jvmtiExtEventCallbacks, ptr, %class.JvmtiEnvEventEnable, %struct.jvmtiCapabilities, %struct.jvmtiCapabilities, i8, [7 x i8], ptr, i32, [4 x i8] }>
%struct._jvmtiEnv = type { ptr }
%struct.jvmtiEventCallbacks = type { ptr, ptr, ptr, ptr, ptr, ptr, ptr, ptr, ptr, ptr, ptr, ptr, ptr, ptr, ptr, ptr, ptr, ptr, ptr, ptr, ptr, ptr, ptr, ptr, ptr, ptr, ptr, ptr, ptr, ptr, ptr, ptr, ptr, ptr, ptr, ptr, ptr, ptr, ptr }
%struct.jvmtiExtEventCallbacks = type { ptr, ptr, ptr }
%class.JvmtiEnvEventEnable = type { %class.JvmtiEventEnabled, %class.JvmtiEventEnabled, %class.JvmtiEventEnabled }
%class.JvmtiEventEnabled = type { i64 }
%struct.jvmtiCapabilities = type { i64, i64 }
%class.MutexLocker = type { %class.MutexLockerImpl }
%class.MutexLockerImpl = type { ptr }

@.str.5 = private unnamed_addr constant [30 x i8] c"TagMap table needs cleaning%s\00", align 1
@.str.6 = private unnamed_addr constant [13 x i8] c" and posting\00", align 1
@.str.7 = private unnamed_addr constant [1 x i8] zeroinitializer, align 1
@_ZN16LogTagSetMappingILN6LogTag4typeE69ELS1_157ELS1_0ELS1_0ELS1_0ELS1_0EE7_tagsetE = linkonce_odr hidden global %class.LogTagSet zeroinitializer, comdat, align 8

; Function Attrs: mustprogress nounwind uwtable
define linkonce_odr hidden noundef i64 @_ZN17JvmtiEventEnabled8get_bitsEv(ptr noundef nonnull align 8 dereferenceable(8) %0) #1 comdat align 2 {
  %2 = alloca ptr, align 8
  store ptr %0, ptr %2, align 8
  %3 = load ptr, ptr %2, align 8
  %4 = getelementptr inbounds %class.JvmtiEventEnabled, ptr %3, i32 0, i32 0
  %5 = load i64, ptr %4, align 8
  ret i64 %5
}

; Function Attrs: mustprogress nounwind uwtable
define linkonce_odr hidden noundef i64 @_ZN17JvmtiEventEnabled7bit_forE10jvmtiEvent(i32 noundef %0) #1 comdat align 2 {
  %2 = alloca i32, align 4
  store i32 %0, ptr %2, align 4
  %3 = load i32, ptr %2, align 4
  %4 = sub nsw i32 %3, 47
  %5 = zext i32 %4 to i64
  %6 = shl i64 1, %5
  ret i64 %6
}

; Function Attrs: mustprogress nounwind uwtable
define linkonce_odr hidden noundef zeroext i1 @_ZNK13LogOutputList8is_levelEN8LogLevel4typeE(ptr noundef nonnull align 8 dereferenceable(52) %0, i32 noundef %1) #1 comdat align 2 {
  %3 = alloca ptr, align 8
  %4 = alloca i32, align 4
  store ptr %0, ptr %3, align 8
  store i32 %1, ptr %4, align 4
  %5 = load ptr, ptr %3, align 8
  %6 = getelementptr inbounds %class.LogOutputList, ptr %5, i32 0, i32 0
  %7 = load i32, ptr %4, align 4
  %8 = zext i32 %7 to i64
  %9 = getelementptr inbounds [6 x ptr], ptr %6, i64 0, i64 %8
  %10 = load volatile ptr, ptr %9, align 8
  %11 = icmp ne ptr %10, null
  ret i1 %11
}

; Function Attrs: mustprogress nounwind uwtable
define linkonce_odr hidden noundef zeroext i1 @_ZN17JvmtiEventEnabled10is_enabledE10jvmtiEvent(ptr noundef nonnull align 8 dereferenceable(8) %0, i32 noundef %1) #1 comdat align 2 {
  %3 = alloca ptr, align 8
  %4 = alloca i32, align 4
  store ptr %0, ptr %3, align 8
  store i32 %1, ptr %4, align 4
  %5 = load ptr, ptr %3, align 8
  %6 = load i32, ptr %4, align 4
  %7 = call noundef i64 @_ZN17JvmtiEventEnabled7bit_forE10jvmtiEvent(i32 noundef %6)
  %8 = call noundef i64 @_ZN17JvmtiEventEnabled8get_bitsEv(ptr noundef nonnull align 8 dereferenceable(8) %5)
  %9 = and i64 %7, %8
  %10 = icmp ne i64 %9, 0
  ret i1 %10
}

; Function Attrs: mustprogress nounwind uwtable
define linkonce_odr hidden noundef zeroext i1 @_ZNK9LogTagSet8is_levelEN8LogLevel4typeE(ptr noundef nonnull align 8 dereferenceable(112) %0, i32 noundef %1) #1 comdat align 2 {
  %3 = alloca ptr, align 8
  %4 = alloca i32, align 4
  store ptr %0, ptr %3, align 8
  store i32 %1, ptr %4, align 4
  %5 = load ptr, ptr %3, align 8
  %6 = getelementptr inbounds %class.LogTagSet, ptr %5, i32 0, i32 4
  %7 = load i32, ptr %4, align 4
  %8 = call noundef zeroext i1 @_ZNK13LogOutputList8is_levelEN8LogLevel4typeE(ptr noundef nonnull align 8 dereferenceable(52) %6, i32 noundef %7)
  ret i1 %8
}

; Function Attrs: mustprogress nounwind uwtable
define linkonce_odr hidden noundef nonnull align 8 dereferenceable(112) ptr @_ZN16LogTagSetMappingILN6LogTag4typeE69ELS1_157ELS1_0ELS1_0ELS1_0ELS1_0EE6tagsetEv() #1 comdat align 2 {
  ret ptr @_ZN16LogTagSetMappingILN6LogTag4typeE69ELS1_157ELS1_0ELS1_0ELS1_0ELS1_0EE7_tagsetE
}

; Function Attrs: mustprogress nounwind uwtable
define linkonce_odr hidden noundef zeroext i1 @_ZN19JvmtiEnvEventEnable10is_enabledE10jvmtiEvent(ptr noundef nonnull align 8 dereferenceable(24) %0, i32 noundef %1) #1 comdat align 2 {
  %3 = alloca ptr, align 8
  %4 = alloca i32, align 4
  store ptr %0, ptr %3, align 8
  store i32 %1, ptr %4, align 4
  %5 = load ptr, ptr %3, align 8
  %6 = getelementptr inbounds %class.JvmtiEnvEventEnable, ptr %5, i32 0, i32 2
  %7 = load i32, ptr %4, align 4
  %8 = call noundef zeroext i1 @_ZN17JvmtiEventEnabled10is_enabledE10jvmtiEvent(ptr noundef nonnull align 8 dereferenceable(8) %6, i32 noundef %7)
  ret i1 %8
}

; Function Attrs: mustprogress nounwind uwtable
define linkonce_odr hidden void @_ZN15MutexLockerImplD2Ev(ptr noundef nonnull align 8 dereferenceable(8) %0) unnamed_addr #1 comdat align 2 {
  %2 = alloca ptr, align 8
  store ptr %0, ptr %2, align 8
  %3 = load ptr, ptr %2, align 8
  %4 = getelementptr inbounds %class.MutexLockerImpl, ptr %3, i32 0, i32 0
  %5 = load ptr, ptr %4, align 8
  %6 = icmp ne ptr %5, null
  br i1 %6, label %7, label %10

7:                                                ; preds = %1
  %8 = getelementptr inbounds %class.MutexLockerImpl, ptr %3, i32 0, i32 0
  %9 = load ptr, ptr %8, align 8
  call void @_ZN5Mutex6unlockEv(ptr noundef nonnull align 8 dereferenceable(104) %9)
  br label %10

10:                                               ; preds = %7, %1
  ret void
}

; Function Attrs: mustprogress nounwind uwtable
define linkonce_odr hidden noundef ptr @_ZN11JvmtiTagMap7hashmapEv(ptr noundef nonnull align 8 dereferenceable(122) %0) #1 comdat align 2 {
  %2 = alloca ptr, align 8
  store ptr %0, ptr %2, align 8
  %3 = load ptr, ptr %2, align 8
  %4 = getelementptr inbounds %class.JvmtiTagMap, ptr %3, i32 0, i32 2
  %5 = load ptr, ptr %4, align 8
  ret ptr %5
}

; Function Attrs: mustprogress nounwind uwtable
define linkonce_odr hidden noundef zeroext i1 @_ZN7LogImplILN6LogTag4typeE69ELS1_157ELS1_0ELS1_0ELS1_0ELS1_0EE8is_levelEN8LogLevel4typeE(i32 noundef %0) #1 comdat align 2 {
  %2 = alloca i32, align 4
  store i32 %0, ptr %2, align 4
  %3 = call noundef nonnull align 8 dereferenceable(112) ptr @_ZN16LogTagSetMappingILN6LogTag4typeE69ELS1_157ELS1_0ELS1_0ELS1_0ELS1_0EE6tagsetEv()
  %4 = load i32, ptr %2, align 4
  %5 = call noundef zeroext i1 @_ZNK9LogTagSet8is_levelEN8LogLevel4typeE(ptr noundef nonnull align 8 dereferenceable(112) %3, i32 noundef %4)
  ret i1 %5
}

; Function Attrs: mustprogress nounwind uwtable
define linkonce_odr hidden noundef zeroext i1 @_ZN12JvmtiEnvBase10is_enabledE10jvmtiEvent(ptr noundef nonnull align 8 dereferenceable(460) %0, i32 noundef %1) #1 comdat align 2 {
  %3 = alloca ptr, align 8
  %4 = alloca i32, align 4
  store ptr %0, ptr %3, align 8
  store i32 %1, ptr %4, align 4
  %5 = load ptr, ptr %3, align 8
  %6 = getelementptr inbounds %class.JvmtiEnvBase, ptr %5, i32 0, i32 10
  %7 = load i32, ptr %4, align 4
  %8 = call noundef zeroext i1 @_ZN19JvmtiEnvEventEnable10is_enabledE10jvmtiEvent(ptr noundef nonnull align 8 dereferenceable(24) %6, i32 noundef %7)
  ret i1 %8
}

; Function Attrs: mustprogress nounwind uwtable
define linkonce_odr hidden noundef ptr @_ZNK11JvmtiTagMap3envEv(ptr noundef nonnull align 8 dereferenceable(122) %0) #1 comdat align 2 {
  %2 = alloca ptr, align 8
  store ptr %0, ptr %2, align 8
  %3 = load ptr, ptr %2, align 8
  %4 = getelementptr inbounds %class.JvmtiTagMap, ptr %3, i32 0, i32 0
  %5 = load ptr, ptr %4, align 8
  ret ptr %5
}

; Function Attrs: mustprogress nounwind uwtable
define linkonce_odr hidden void @_ZN15MutexLockerImplC2EP5MutexNS0_18SafepointCheckFlagE(ptr noundef nonnull align 8 dereferenceable(8) %0, ptr noundef %1, i32 noundef %2) unnamed_addr #1 comdat align 2 {
  %4 = alloca ptr, align 8
  %5 = alloca ptr, align 8
  %6 = alloca i32, align 4
  %7 = alloca i8, align 1
  store ptr %0, ptr %4, align 8
  store ptr %1, ptr %5, align 8
  store i32 %2, ptr %6, align 4
  %8 = load ptr, ptr %4, align 8
  %9 = getelementptr inbounds %class.MutexLockerImpl, ptr %8, i32 0, i32 0
  %10 = load ptr, ptr %5, align 8
  store ptr %10, ptr %9, align 8
  %11 = load i32, ptr %6, align 4
  %12 = icmp eq i32 %11, 1
  %13 = zext i1 %12 to i8
  store i8 %13, ptr %7, align 1
  %14 = getelementptr inbounds %class.MutexLockerImpl, ptr %8, i32 0, i32 0
  %15 = load ptr, ptr %14, align 8
  %16 = icmp ne ptr %15, null
  br i1 %16, label %17, label %27

17:                                               ; preds = %3
  %18 = load i8, ptr %7, align 1
  %19 = trunc i8 %18 to i1
  br i1 %19, label %20, label %23

20:                                               ; preds = %17
  %21 = getelementptr inbounds %class.MutexLockerImpl, ptr %8, i32 0, i32 0
  %22 = load ptr, ptr %21, align 8
  call void @_ZN5Mutex28lock_without_safepoint_checkEv(ptr noundef nonnull align 8 dereferenceable(104) %22)
  br label %26

23:                                               ; preds = %17
  %24 = getelementptr inbounds %class.MutexLockerImpl, ptr %8, i32 0, i32 0
  %25 = load ptr, ptr %24, align 8
  call void @_ZN5Mutex4lockEv(ptr noundef nonnull align 8 dereferenceable(104) %25)
  br label %26

26:                                               ; preds = %23, %20
  br label %27

27:                                               ; preds = %26, %3
  ret void
}

; Function Attrs: mustprogress nounwind uwtable
define linkonce_odr hidden void @_ZN11MutexLockerD2Ev(ptr noundef nonnull align 8 dereferenceable(8) %0) unnamed_addr #1 comdat align 2 {
  %2 = alloca ptr, align 8
  store ptr %0, ptr %2, align 8
  %3 = load ptr, ptr %2, align 8
  call void @_ZN15MutexLockerImplD2Ev(ptr noundef nonnull align 8 dereferenceable(8) %3) #9
  ret void
}

; Function Attrs: mustprogress nounwind uwtable
define hidden void @_ZN11JvmtiTagMap26remove_dead_entries_lockedEP13GrowableArrayIlE(ptr noundef nonnull align 8 dereferenceable(122) %0, ptr noundef %1) #1 align 2 {
  %3 = alloca ptr, align 8
  %4 = alloca ptr, align 8
  store ptr %0, ptr %3, align 8
  store ptr %1, ptr %4, align 8
  %5 = load ptr, ptr %3, align 8
  %6 = getelementptr inbounds %class.JvmtiTagMap, ptr %5, i32 0, i32 3
  %7 = load i8, ptr %6, align 8
  %8 = trunc i8 %7 to i1
  br i1 %8, label %9, label %24

9:                                                ; preds = %2
  %10 = call noundef ptr @_ZNK11JvmtiTagMap3envEv(ptr noundef nonnull align 8 dereferenceable(122) %5)
  %11 = call noundef zeroext i1 @_ZN12JvmtiEnvBase10is_enabledE10jvmtiEvent(ptr noundef nonnull align 8 dereferenceable(460) %10, i32 noundef 83)
  br i1 %11, label %13, label %12

12:                                               ; preds = %9
  store ptr null, ptr %4, align 8
  br label %13

13:                                               ; preds = %12, %9
  %14 = call noundef zeroext i1 @_ZN7LogImplILN6LogTag4typeE69ELS1_157ELS1_0ELS1_0ELS1_0ELS1_0EE8is_levelEN8LogLevel4typeE(i32 noundef 3)
  br i1 %14, label %16, label %15

15:                                               ; preds = %13
  br label %20

16:                                               ; preds = %13
  %17 = load ptr, ptr %4, align 8
  %18 = icmp ne ptr %17, null
  %19 = select i1 %18, ptr @.str.6, ptr @.str.7
  call void (ptr, ...) @_ZN7LogImplILN6LogTag4typeE69ELS1_157ELS1_0ELS1_0ELS1_0ELS1_0EE5writeILN8LogLevel4typeE3EEEvPKcz(ptr noundef @.str.5, ptr noundef %19)
  br label %20

20:                                               ; preds = %16, %15
  %21 = call noundef ptr @_ZN11JvmtiTagMap7hashmapEv(ptr noundef nonnull align 8 dereferenceable(122) %5)
  %22 = load ptr, ptr %4, align 8
  call void @_ZN16JvmtiTagMapTable19remove_dead_entriesEP13GrowableArrayIlE(ptr noundef nonnull align 8 dereferenceable(24) %21, ptr noundef %22)
  %23 = getelementptr inbounds %class.JvmtiTagMap, ptr %5, i32 0, i32 3
  store i8 0, ptr %23, align 8
  br label %24

24:                                               ; preds = %20, %2
  ret void
}

; Function Attrs: mustprogress nounwind uwtable
define linkonce_odr hidden void @_ZN11MutexLockerC2EP5MutexNS0_18SafepointCheckFlagE(ptr noundef nonnull align 8 dereferenceable(8) %0, ptr noundef %1, i32 noundef %2) unnamed_addr #1 comdat align 2 {
  %4 = alloca ptr, align 8
  %5 = alloca ptr, align 8
  %6 = alloca i32, align 4
  store ptr %0, ptr %4, align 8
  store ptr %1, ptr %5, align 8
  store i32 %2, ptr %6, align 4
  %7 = load ptr, ptr %4, align 8
  %8 = load ptr, ptr %5, align 8
  %9 = load i32, ptr %6, align 4
  call void @_ZN15MutexLockerImplC2EP5MutexNS0_18SafepointCheckFlagE(ptr noundef nonnull align 8 dereferenceable(8) %7, ptr noundef %8, i32 noundef %9)
  ret void
}

; Function Attrs: mustprogress nounwind uwtable
define linkonce_odr hidden noundef ptr @_ZN11JvmtiTagMap4lockEv(ptr noundef nonnull align 8 dereferenceable(122) %0) #1 comdat align 2 {
  %2 = alloca ptr, align 8
  store ptr %0, ptr %2, align 8
  %3 = load ptr, ptr %2, align 8
  %4 = getelementptr inbounds %class.JvmtiTagMap, ptr %3, i32 0, i32 1
  ret ptr %4
}

; Function Attrs: mustprogress nounwind uwtable
define hidden void @_ZN11JvmtiTagMap19remove_dead_entriesEP13GrowableArrayIlE(ptr noundef nonnull align 8 dereferenceable(122) %0, ptr noundef %1) #1 align 2 {
  %3 = alloca ptr, align 8
  %4 = alloca ptr, align 8
  %5 = alloca %class.MutexLocker, align 8
  store ptr %0, ptr %3, align 8
  store ptr %1, ptr %4, align 8
  %6 = load ptr, ptr %3, align 8
  %7 = call noundef ptr @_ZN11JvmtiTagMap4lockEv(ptr noundef nonnull align 8 dereferenceable(122) %6)
  call void @_ZN11MutexLockerC2EP5MutexNS0_18SafepointCheckFlagE(ptr noundef nonnull align 8 dereferenceable(8) %5, ptr noundef %7, i32 noundef 1)
  %8 = load ptr, ptr %4, align 8
  call void @_ZN11JvmtiTagMap26remove_dead_entries_lockedEP13GrowableArrayIlE(ptr noundef nonnull align 8 dereferenceable(122) %6, ptr noundef %8)
  call void @_ZN11MutexLockerD2Ev(ptr noundef nonnull align 8 dereferenceable(8) %5) #9
  ret void
}