; Function Attrs: mustprogress nounwind uwtable
define hidden void @_ZN11JvmtiTagMap19remove_dead_entriesEP13GrowableArrayIlE(ptr noundef nonnull align 8 dereferenceable(122) %0, ptr noundef %1) local_unnamed_addr #0 align 2 {
  %3 = getelementptr inbounds i8, ptr %0, i64 8
  tail call void @_ZN5Mutex28lock_without_safepoint_checkEv(ptr noundef nonnull align 8 dereferenceable(104) %3) #14
  %4 = getelementptr inbounds i8, ptr %0, i64 120
  %5 = load i8, ptr %4, align 8
  %6 = trunc i8 %5 to i1
  br i1 %6, label %7, label %_ZN11MutexLockerD2Ev.exit

7:                                                ; preds = %2
  %8 = load ptr, ptr %0, align 8
  %9 = getelementptr inbounds i8, ptr %8, i64 400
  %10 = load i64, ptr %9, align 8
  %11 = and i64 %10, 68719476736
  %.not3.i = icmp eq i64 %11, 0
  %spec.select.i = select i1 %.not3.i, ptr null, ptr %1
  %12 = load volatile ptr, ptr getelementptr inbounds (i8, ptr @_ZN16LogTagSetMappingILN6LogTag4typeE69ELS1_157ELS1_0ELS1_0ELS1_0ELS1_0EE7_tagsetE, i64 64), align 8
  %.not4.i = icmp eq ptr %12, null
  br i1 %.not4.i, label %15, label %13

13:                                               ; preds = %7
  %.not.i = icmp eq ptr %spec.select.i, null
  %14 = select i1 %.not.i, ptr @.str.7, ptr @.str.6
  tail call void (ptr, ...) @_ZN7LogImplILN6LogTag4typeE69ELS1_157ELS1_0ELS1_0ELS1_0ELS1_0EE5writeILN8LogLevel4typeE3EEEvPKcz(ptr noundef nonnull @.str.5, ptr noundef nonnull %14)
  br label %15

15:                                               ; preds = %13, %7
  %16 = getelementptr inbounds i8, ptr %0, i64 112
  %17 = load ptr, ptr %16, align 8
  tail call void @_ZN16JvmtiTagMapTable19remove_dead_entriesEP13GrowableArrayIlE(ptr noundef nonnull align 8 dereferenceable(24) %17, ptr noundef %spec.select.i) #14
  store i8 0, ptr %4, align 8
  br label %_ZN11MutexLockerD2Ev.exit

_ZN11MutexLockerD2Ev.exit:                        ; preds = %2, %15
  tail call void @_ZN5Mutex6unlockEv(ptr noundef nonnull align 8 dereferenceable(104) %3) #14
  ret void
}